target datalayout = "e-m:e-p270:32:32-p271:32:32-p272:64:64-i64:64-i128:128-f80:128-n8:16:32:64-S128"
target triple = "x86_64-pc-linux-gnu"

%struct._zend_array = type { %struct._zend_refcounted_h, %union.anon.1, i32, %union.anon.2, i32, i32, i32, i32, i64, ptr }
%struct._zend_refcounted_h = type { i32, %union.anon.0 }
%union.anon.0 = type { i32 }
%union.anon.1 = type { i32 }
%union.anon.2 = type { ptr }
%struct._zval_struct = type { %union._zend_value, %union.anon.9, %union.anon.12 }
%union._zend_value = type { i64 }
%union.anon.9 = type { i32 }
%union.anon.12 = type { i32 }
%struct._zend_string = type { %struct._zend_refcounted_h, i64, i64, [1 x i8] }
%struct._zend_class_entry = type { i8, ptr, %union.anon, i32, i32, i32, i32, ptr, ptr, ptr, %struct._zend_array, %struct._zend_array, %struct._zend_array, ptr, ptr, ptr, ptr, ptr, ptr, ptr, ptr, ptr, ptr, ptr, ptr, ptr, ptr, ptr, ptr, ptr, ptr, ptr, %union.anon.3, ptr, ptr, ptr, ptr, i32, i32, i32, i32, %union.anon.4, ptr, ptr, ptr, ptr, i32, ptr, ptr, %union.anon.5 }
%union.anon = type { ptr }
%union.anon.3 = type { ptr }
%union.anon.4 = type { ptr }
%union.anon.5 = type { %struct.anon.6 }
%struct.anon.6 = type { ptr, i32, i32 }
%struct._Bucket = type { %struct._zval_struct, i64, ptr }
%struct.anon.10 = type { i8, i8, %union.anon.11 }
%union.anon.11 = type { i16 }

@.str.21 = private unnamed_addr constant [62 x i8] c"Class %s cannot implement previously implemented interface %s\00", align 1

; Function Attrs: alwaysinline nounwind uwtable
define internal zeroext i8 @zval_get_type(ptr noundef %0) #3 {
  %2 = alloca ptr, align 8
  store ptr %0, ptr %2, align 8, !tbaa !51
  %3 = load ptr, ptr %2, align 8, !tbaa !51
  %4 = getelementptr inbounds nuw %struct._zval_struct, ptr %3, i32 0, i32 1
  %5 = getelementptr inbounds nuw %struct.anon.10, ptr %4, i32 0, i32 0
  %6 = load i8, ptr %5, align 8, !tbaa !46
  ret i8 %6
}

; Function Attrs: nounwind uwtable
define dso_local void @zend_do_implement_interface(ptr noundef %0, ptr noundef %1) #0 {
  %3 = alloca ptr, align 8
  %4 = alloca ptr, align 8
  %5 = alloca i32, align 4
  %6 = alloca i32, align 4
  %7 = alloca i32, align 4
  %8 = alloca i32, align 4
  %9 = alloca ptr, align 8
  %10 = alloca ptr, align 8
  %11 = alloca ptr, align 8
  %12 = alloca ptr, align 8
  %13 = alloca ptr, align 8
  %14 = alloca ptr, align 8
  %15 = alloca i32, align 4
  store ptr %0, ptr %3, align 8, !tbaa !8
  store ptr %1, ptr %4, align 8, !tbaa !8
  call void @llvm.lifetime.start.p0(i64 4, ptr %5) #19
  call void @llvm.lifetime.start.p0(i64 4, ptr %6) #19
  store i32 0, ptr %6, align 4, !tbaa !4
  call void @llvm.lifetime.start.p0(i64 4, ptr %7) #19
  %16 = load ptr, ptr %3, align 8, !tbaa !8
  %17 = getelementptr inbounds nuw %struct._zend_class_entry, ptr %16, i32 0, i32 37
  %18 = load i32, ptr %17, align 8, !tbaa !100
  store i32 %18, ptr %7, align 4, !tbaa !4
  call void @llvm.lifetime.start.p0(i64 4, ptr %8) #19
  %19 = load ptr, ptr %3, align 8, !tbaa !8
  %20 = getelementptr inbounds nuw %struct._zend_class_entry, ptr %19, i32 0, i32 2
  %21 = load ptr, ptr %20, align 8, !tbaa !46
  %22 = icmp ne ptr %21, null
  br i1 %22, label %23, label %29

23:                                               ; preds = %2
  %24 = load ptr, ptr %3, align 8, !tbaa !8
  %25 = getelementptr inbounds nuw %struct._zend_class_entry, ptr %24, i32 0, i32 2
  %26 = load ptr, ptr %25, align 8, !tbaa !46
  %27 = getelementptr inbounds nuw %struct._zend_class_entry, ptr %26, i32 0, i32 37
  %28 = load i32, ptr %27, align 8, !tbaa !100
  br label %30

29:                                               ; preds = %2
  br label %30

30:                                               ; preds = %29, %23
  %31 = phi i32 [ %28, %23 ], [ 0, %29 ]
  store i32 %31, ptr %8, align 4, !tbaa !4
  call void @llvm.lifetime.start.p0(i64 8, ptr %9) #19
  call void @llvm.lifetime.start.p0(i64 8, ptr %10) #19
  %32 = load ptr, ptr %3, align 8, !tbaa !8
  %33 = getelementptr inbounds nuw %struct._zend_class_entry, ptr %32, i32 0, i32 4
  %34 = load i32, ptr %33, align 4, !tbaa !80
  %35 = and i32 %34, 8
  %36 = icmp ne i32 %35, 0
  call void @llvm.assume(i1 %36)
  store i32 0, ptr %5, align 4, !tbaa !4
  br label %37

37:                                               ; preds = %111, %30
  %38 = load i32, ptr %5, align 4, !tbaa !4
  %39 = load ptr, ptr %3, align 8, !tbaa !8
  %40 = getelementptr inbounds nuw %struct._zend_class_entry, ptr %39, i32 0, i32 37
  %41 = load i32, ptr %40, align 8, !tbaa !100
  %42 = icmp ult i32 %38, %41
  br i1 %42, label %43, label %114

43:                                               ; preds = %37
  %44 = load ptr, ptr %3, align 8, !tbaa !8
  %45 = getelementptr inbounds nuw %struct._zend_class_entry, ptr %44, i32 0, i32 41
  %46 = load ptr, ptr %45, align 8, !tbaa !46
  %47 = load i32, ptr %5, align 4, !tbaa !4
  %48 = zext i32 %47 to i64
  %49 = getelementptr inbounds nuw ptr, ptr %46, i64 %48
  %50 = load ptr, ptr %49, align 8, !tbaa !8
  %51 = icmp eq ptr %50, null
  br i1 %51, label %52, label %76

52:                                               ; preds = %43
  %53 = load ptr, ptr %3, align 8, !tbaa !8
  %54 = getelementptr inbounds nuw %struct._zend_class_entry, ptr %53, i32 0, i32 41
  %55 = load ptr, ptr %54, align 8, !tbaa !46
  %56 = load i32, ptr %5, align 4, !tbaa !4
  %57 = zext i32 %56 to i64
  %58 = getelementptr inbounds nuw ptr, ptr %55, i64 %57
  %59 = load ptr, ptr %3, align 8, !tbaa !8
  %60 = getelementptr inbounds nuw %struct._zend_class_entry, ptr %59, i32 0, i32 41
  %61 = load ptr, ptr %60, align 8, !tbaa !46
  %62 = load i32, ptr %5, align 4, !tbaa !4
  %63 = zext i32 %62 to i64
  %64 = getelementptr inbounds nuw ptr, ptr %61, i64 %63
  %65 = getelementptr inbounds ptr, ptr %64, i64 1
  %66 = load ptr, ptr %3, align 8, !tbaa !8
  %67 = getelementptr inbounds nuw %struct._zend_class_entry, ptr %66, i32 0, i32 37
  %68 = load i32, ptr %67, align 8, !tbaa !100
  %69 = add i32 %68, -1
  store i32 %69, ptr %67, align 8, !tbaa !100
  %70 = load i32, ptr %5, align 4, !tbaa !4
  %71 = sub i32 %69, %70
  %72 = zext i32 %71 to i64
  %73 = mul i64 8, %72
  call void @llvm.memmove.p0.p0.i64(ptr align 8 %58, ptr align 8 %65, i64 %73, i1 false)
  %74 = load i32, ptr %5, align 4, !tbaa !4
  %75 = add i32 %74, -1
  store i32 %75, ptr %5, align 4, !tbaa !4
  br label %110

76:                                               ; preds = %43
  %77 = load ptr, ptr %3, align 8, !tbaa !8
  %78 = getelementptr inbounds nuw %struct._zend_class_entry, ptr %77, i32 0, i32 41
  %79 = load ptr, ptr %78, align 8, !tbaa !46
  %80 = load i32, ptr %5, align 4, !tbaa !4
  %81 = zext i32 %80 to i64
  %82 = getelementptr inbounds nuw ptr, ptr %79, i64 %81
  %83 = load ptr, ptr %82, align 8, !tbaa !8
  %84 = load ptr, ptr %4, align 8, !tbaa !8
  %85 = icmp eq ptr %83, %84
  br i1 %85, label %86, label %109

86:                                               ; preds = %76
  %87 = load i32, ptr %5, align 4, !tbaa !4
  %88 = load i32, ptr %8, align 4, !tbaa !4
  %89 = icmp ult i32 %87, %88
  %90 = xor i1 %89, true
  %91 = xor i1 %90, true
  %92 = zext i1 %91 to i32
  %93 = sext i32 %92 to i64
  %94 = call i64 @llvm.expect.i64(i64 %93, i64 1)
  %95 = icmp ne i64 %94, 0
  br i1 %95, label %96, label %97

96:                                               ; preds = %86
  store i32 1, ptr %6, align 4, !tbaa !4
  br label %108

97:                                               ; preds = %86
  %98 = load ptr, ptr %3, align 8, !tbaa !8
  %99 = getelementptr inbounds nuw %struct._zend_class_entry, ptr %98, i32 0, i32 1
  %100 = load ptr, ptr %99, align 8, !tbaa !70
  %101 = getelementptr inbounds nuw %struct._zend_string, ptr %100, i32 0, i32 3
  %102 = getelementptr inbounds [1 x i8], ptr %101, i64 0, i64 0
  %103 = load ptr, ptr %4, align 8, !tbaa !8
  %104 = getelementptr inbounds nuw %struct._zend_class_entry, ptr %103, i32 0, i32 1
  %105 = load ptr, ptr %104, align 8, !tbaa !70
  %106 = getelementptr inbounds nuw %struct._zend_string, ptr %105, i32 0, i32 3
  %107 = getelementptr inbounds [1 x i8], ptr %106, i64 0, i64 0
  call void (i32, ptr, ...) @zend_error_noreturn(i32 noundef 64, ptr noundef @.str.21, ptr noundef %102, ptr noundef %107) #21
  unreachable

108:                                              ; preds = %96
  br label %109

109:                                              ; preds = %108, %76
  br label %110

110:                                              ; preds = %109, %52
  br label %111

111:                                              ; preds = %110
  %112 = load i32, ptr %5, align 4, !tbaa !4
  %113 = add i32 %112, 1
  store i32 %113, ptr %5, align 4, !tbaa !4
  br label %37

114:                                              ; preds = %37
  %115 = load i32, ptr %6, align 4, !tbaa !4
  %116 = icmp ne i32 %115, 0
  br i1 %116, label %117, label %177

117:                                              ; preds = %114
  br label %118

118:                                              ; preds = %117
  call void @llvm.lifetime.start.p0(i64 8, ptr %11) #19
  %119 = load ptr, ptr %4, align 8, !tbaa !8
  %120 = getelementptr inbounds nuw %struct._zend_class_entry, ptr %119, i32 0, i32 12
  store ptr %120, ptr %11, align 8, !tbaa !47
  call void @llvm.lifetime.start.p0(i64 8, ptr %12) #19
  %121 = load ptr, ptr %11, align 8, !tbaa !47
  %122 = getelementptr inbounds nuw %struct._zend_array, ptr %121, i32 0, i32 3
  %123 = load ptr, ptr %122, align 8, !tbaa !46
  %124 = getelementptr inbounds %struct._Bucket, ptr %123, i64 0
  store ptr %124, ptr %12, align 8, !tbaa !48
  call void @llvm.lifetime.start.p0(i64 8, ptr %13) #19
  %125 = load ptr, ptr %11, align 8, !tbaa !47
  %126 = getelementptr inbounds nuw %struct._zend_array, ptr %125, i32 0, i32 3
  %127 = load ptr, ptr %126, align 8, !tbaa !46
  %128 = load ptr, ptr %11, align 8, !tbaa !47
  %129 = getelementptr inbounds nuw %struct._zend_array, ptr %128, i32 0, i32 4
  %130 = load i32, ptr %129, align 8, !tbaa !50
  %131 = zext i32 %130 to i64
  %132 = getelementptr inbounds nuw %struct._Bucket, ptr %127, i64 %131
  store ptr %132, ptr %13, align 8, !tbaa !48
  %133 = load ptr, ptr %11, align 8, !tbaa !47
  %134 = getelementptr inbounds nuw %struct._zend_array, ptr %133, i32 0, i32 1
  %135 = load i32, ptr %134, align 8, !tbaa !46
  %136 = and i32 %135, 4
  %137 = icmp ne i32 %136, 0
  %138 = xor i1 %137, true
  call void @llvm.assume(i1 %138)
  br label %139

139:                                              ; preds = %171, %118
  %140 = load ptr, ptr %12, align 8, !tbaa !48
  %141 = load ptr, ptr %13, align 8, !tbaa !48
  %142 = icmp ne ptr %140, %141
  br i1 %142, label %143, label %174

143:                                              ; preds = %139
  call void @llvm.lifetime.start.p0(i64 8, ptr %14) #19
  %144 = load ptr, ptr %12, align 8, !tbaa !48
  %145 = getelementptr inbounds nuw %struct._Bucket, ptr %144, i32 0, i32 0
  store ptr %145, ptr %14, align 8, !tbaa !51
  %146 = load ptr, ptr %14, align 8, !tbaa !51
  %147 = call zeroext i8 @zval_get_type(ptr noundef %146)
  %148 = zext i8 %147 to i32
  %149 = icmp eq i32 %148, 0
  %150 = xor i1 %149, true
  %151 = xor i1 %150, true
  %152 = zext i1 %151 to i32
  %153 = sext i32 %152 to i64
  %154 = call i64 @llvm.expect.i64(i64 %153, i64 0)
  %155 = icmp ne i64 %154, 0
  br i1 %155, label %156, label %157

156:                                              ; preds = %143
  store i32 9, ptr %15, align 4
  br label %168

157:                                              ; preds = %143
  %158 = load ptr, ptr %12, align 8, !tbaa !48
  %159 = getelementptr inbounds nuw %struct._Bucket, ptr %158, i32 0, i32 2
  %160 = load ptr, ptr %159, align 8, !tbaa !94
  store ptr %160, ptr %9, align 8, !tbaa !19
  %161 = load ptr, ptr %14, align 8, !tbaa !51
  %162 = getelementptr inbounds nuw %struct._zval_struct, ptr %161, i32 0, i32 0
  %163 = load ptr, ptr %162, align 8, !tbaa !46
  store ptr %163, ptr %10, align 8, !tbaa !98
  %164 = load ptr, ptr %3, align 8, !tbaa !8
  %165 = load ptr, ptr %10, align 8, !tbaa !98
  %166 = load ptr, ptr %9, align 8, !tbaa !19
  %167 = call zeroext i1 @do_inherit_constant_check(ptr noundef %164, ptr noundef %165, ptr noundef %166)
  store i32 0, ptr %15, align 4
  br label %168

168:                                              ; preds = %157, %156
  call void @llvm.lifetime.end.p0(i64 8, ptr %14) #19
  %169 = load i32, ptr %15, align 4
  switch i32 %169, label %226 [
    i32 0, label %170
    i32 9, label %171
  ]

170:                                              ; preds = %168
  br label %171

171:                                              ; preds = %170, %168
  %172 = load ptr, ptr %12, align 8, !tbaa !48
  %173 = getelementptr inbounds nuw %struct._Bucket, ptr %172, i32 1
  store ptr %173, ptr %12, align 8, !tbaa !48
  br label %139

174:                                              ; preds = %139
  call void @llvm.lifetime.end.p0(i64 8, ptr %13) #19
  call void @llvm.lifetime.end.p0(i64 8, ptr %12) #19
  call void @llvm.lifetime.end.p0(i64 8, ptr %11) #19
  br label %175

175:                                              ; preds = %174
  br label %176

176:                                              ; preds = %175
  br label %225

177:                                              ; preds = %114
  %178 = load ptr, ptr %3, align 8, !tbaa !8
  %179 = getelementptr inbounds nuw %struct._zend_class_entry, ptr %178, i32 0, i32 37
  %180 = load i32, ptr %179, align 8, !tbaa !100
  %181 = load i32, ptr %7, align 4, !tbaa !4
  %182 = icmp uge i32 %180, %181
  br i1 %182, label %183, label %212

183:                                              ; preds = %177
  %184 = load ptr, ptr %3, align 8, !tbaa !8
  %185 = getelementptr inbounds nuw %struct._zend_class_entry, ptr %184, i32 0, i32 0
  %186 = load i8, ptr %185, align 8, !tbaa !44
  %187 = sext i8 %186 to i32
  %188 = icmp eq i32 %187, 1
  br i1 %188, label %189, label %200

189:                                              ; preds = %183
  %190 = load ptr, ptr %3, align 8, !tbaa !8
  %191 = getelementptr inbounds nuw %struct._zend_class_entry, ptr %190, i32 0, i32 41
  %192 = load ptr, ptr %191, align 8, !tbaa !46
  %193 = load i32, ptr %7, align 4, !tbaa !4
  %194 = add i32 %193, 1
  store i32 %194, ptr %7, align 4, !tbaa !4
  %195 = zext i32 %194 to i64
  %196 = mul i64 8, %195
  %197 = call ptr @realloc(ptr noundef %192, i64 noundef %196) #22
  %198 = load ptr, ptr %3, align 8, !tbaa !8
  %199 = getelementptr inbounds nuw %struct._zend_class_entry, ptr %198, i32 0, i32 41
  store ptr %197, ptr %199, align 8, !tbaa !46
  br label %211

200:                                              ; preds = %183
  %201 = load ptr, ptr %3, align 8, !tbaa !8
  %202 = getelementptr inbounds nuw %struct._zend_class_entry, ptr %201, i32 0, i32 41
  %203 = load ptr, ptr %202, align 8, !tbaa !46
  %204 = load i32, ptr %7, align 4, !tbaa !4
  %205 = add i32 %204, 1
  store i32 %205, ptr %7, align 4, !tbaa !4
  %206 = zext i32 %205 to i64
  %207 = mul i64 8, %206
  %208 = call ptr @_erealloc(ptr noundef %203, i64 noundef %207) #23
  %209 = load ptr, ptr %3, align 8, !tbaa !8
  %210 = getelementptr inbounds nuw %struct._zend_class_entry, ptr %209, i32 0, i32 41
  store ptr %208, ptr %210, align 8, !tbaa !46
  br label %211

211:                                              ; preds = %200, %189
  br label %212

212:                                              ; preds = %211, %177
  %213 = load ptr, ptr %4, align 8, !tbaa !8
  %214 = load ptr, ptr %3, align 8, !tbaa !8
  %215 = getelementptr inbounds nuw %struct._zend_class_entry, ptr %214, i32 0, i32 41
  %216 = load ptr, ptr %215, align 8, !tbaa !46
  %217 = load ptr, ptr %3, align 8, !tbaa !8
  %218 = getelementptr inbounds nuw %struct._zend_class_entry, ptr %217, i32 0, i32 37
  %219 = load i32, ptr %218, align 8, !tbaa !100
  %220 = add i32 %219, 1
  store i32 %220, ptr %218, align 8, !tbaa !100
  %221 = zext i32 %219 to i64
  %222 = getelementptr inbounds nuw ptr, ptr %216, i64 %221
  store ptr %213, ptr %222, align 8, !tbaa !8
  %223 = load ptr, ptr %3, align 8, !tbaa !8
  %224 = load ptr, ptr %4, align 8, !tbaa !8
  call void @do_interface_implementation(ptr noundef %223, ptr noundef %224)
  br label %225

225:                                              ; preds = %212, %176
  call void @llvm.lifetime.end.p0(i64 8, ptr %10) #19
  call void @llvm.lifetime.end.p0(i64 8, ptr %9) #19
  call void @llvm.lifetime.end.p0(i64 4, ptr %8) #19
  call void @llvm.lifetime.end.p0(i64 4, ptr %7) #19
  call void @llvm.lifetime.end.p0(i64 4, ptr %6) #19
  call void @llvm.lifetime.end.p0(i64 4, ptr %5) #19
  ret void

226:                                              ; preds = %168
  unreachable
}