; Function Attrs: nounwind uwtable
define dso_local void @zend_do_implement_interface(ptr noundef %0, ptr noundef %1) local_unnamed_addr #2 {
  %3 = getelementptr inbounds nuw i8, ptr %0, i64 424
  %4 = load i32, ptr %3, align 8, !tbaa !148
  %5 = getelementptr inbounds nuw i8, ptr %0, i64 16
  %6 = load ptr, ptr %5, align 8, !tbaa !21
  %.not = icmp eq ptr %6, null
  br i1 %.not, label %10, label %7

7:                                                ; preds = %2
  %8 = getelementptr inbounds nuw i8, ptr %6, i64 424
  %9 = load i32, ptr %8, align 8, !tbaa !148
  br label %10

10:                                               ; preds = %2, %7
  %11 = phi i32 [ %9, %7 ], [ 0, %2 ]
  %12 = getelementptr inbounds nuw i8, ptr %0, i64 28
  %13 = load i32, ptr %12, align 4, !tbaa !22
  %14 = and i32 %13, 8
  %15 = icmp ne i32 %14, 0
  tail call void @llvm.assume(i1 %15)
  %.not74 = icmp eq i32 %4, 0
  br i1 %.not74, label %._crit_edge.thread, label %.lr.ph

.lr.ph:                                           ; preds = %10
  %16 = getelementptr inbounds nuw i8, ptr %0, i64 440
  br label %.outer

.outer:                                           ; preds = %.loopexit86, %.lr.ph
  %.ph = phi i32 [ %42, %.loopexit86 ], [ %4, %.lr.ph ]
  %.068.ph = phi i32 [ %.1, %.loopexit86 ], [ 0, %.lr.ph ]
  %.05267.ph = phi i32 [ %.05267, %.loopexit86 ], [ 0, %.lr.ph ]
  %17 = load ptr, ptr %16, align 8, !tbaa !21
  br label %18

18:                                               ; preds = %.outer, %.thread
  %.068 = phi i32 [ %44, %.thread ], [ %.068.ph, %.outer ]
  %.05267 = phi i32 [ 1, %.thread ], [ %.05267.ph, %.outer ]
  %19 = zext i32 %.068 to i64
  %20 = getelementptr inbounds nuw ptr, ptr %17, i64 %19
  %21 = load ptr, ptr %20, align 8, !tbaa !88
  %22 = icmp eq ptr %21, null
  br i1 %22, label %23, label %30

23:                                               ; preds = %18
  %24 = getelementptr inbounds nuw ptr, ptr %17, i64 %19
  %25 = getelementptr inbounds nuw i8, ptr %24, i64 8
  %26 = add i32 %.ph, -1
  store i32 %26, ptr %3, align 8, !tbaa !148
  %27 = sub i32 %26, %.068
  %28 = zext i32 %27 to i64
  %29 = shl nuw nsw i64 %28, 3
  tail call void @llvm.memmove.p0.p0.i64(ptr nonnull align 8 %24, ptr nonnull align 8 %25, i64 %29, i1 false)
  %.pre = load i32, ptr %3, align 8, !tbaa !148
  br label %.loopexit86

30:                                               ; preds = %18
  %31 = icmp eq ptr %21, %1
  br i1 %31, label %32, label %.loopexit86.loopexit

32:                                               ; preds = %30
  %33 = icmp ult i32 %.068, %11
  br i1 %33, label %.thread, label %34, !prof !82

34:                                               ; preds = %32
  %35 = getelementptr inbounds nuw i8, ptr %0, i64 8
  %36 = load ptr, ptr %35, align 8, !tbaa !37
  %37 = getelementptr inbounds nuw i8, ptr %36, i64 24
  %38 = getelementptr inbounds nuw i8, ptr %1, i64 8
  %39 = load ptr, ptr %38, align 8, !tbaa !37
  %40 = getelementptr inbounds nuw i8, ptr %39, i64 24
  tail call void (i32, ptr, ...) @zend_error_noreturn(i32 noundef 64, ptr noundef nonnull @.str.21, ptr noundef nonnull %37, ptr noundef nonnull %40) #19
  unreachable

.loopexit86.loopexit:                             ; preds = %30
  %41 = add i32 %.068, 1
  br label %.loopexit86

.loopexit86:                                      ; preds = %.loopexit86.loopexit, %23
  %42 = phi i32 [ %.pre, %23 ], [ %.ph, %.loopexit86.loopexit ]
  %.1 = phi i32 [ %.068, %23 ], [ %41, %.loopexit86.loopexit ]
  %43 = icmp ult i32 %.1, %42
  br i1 %43, label %.outer, label %._crit_edge

.thread:                                          ; preds = %32
  %44 = add nuw i32 %.068, 1
  %45 = icmp ult i32 %44, %.ph
  br i1 %45, label %18, label %._crit_edge.thread84

._crit_edge:                                      ; preds = %.loopexit86
  %46 = icmp eq i32 %.05267, 0
  br i1 %46, label %._crit_edge.thread, label %._crit_edge.thread84

._crit_edge.thread84:                             ; preds = %.thread, %._crit_edge
  %47 = getelementptr inbounds nuw i8, ptr %1, i64 192
  %48 = load ptr, ptr %47, align 8, !tbaa !21
  %49 = getelementptr inbounds nuw i8, ptr %1, i64 200
  %50 = load i32, ptr %49, align 8, !tbaa !97
  %51 = zext i32 %50 to i64
  %52 = getelementptr inbounds nuw %struct._Bucket, ptr %48, i64 %51
  %53 = getelementptr inbounds nuw i8, ptr %1, i64 184
  %54 = load i32, ptr %53, align 8, !tbaa !21
  %55 = and i32 %54, 4
  %.not63 = icmp eq i32 %55, 0
  tail call void @llvm.assume(i1 %.not63)
  %.not6470 = icmp eq i32 %50, 0
  br i1 %.not6470, label %.loopexit, label %.lr.ph73

.lr.ph73:                                         ; preds = %._crit_edge.thread84, %64
  %.05471 = phi ptr [ %65, %64 ], [ %48, %._crit_edge.thread84 ]
  %56 = getelementptr inbounds nuw i8, ptr %.05471, i64 8
  %57 = load i8, ptr %56, align 8, !tbaa !21
  %58 = icmp eq i8 %57, 0
  br i1 %58, label %64, label %59, !prof !95

59:                                               ; preds = %.lr.ph73
  %60 = getelementptr inbounds nuw i8, ptr %.05471, i64 24
  %61 = load ptr, ptr %60, align 8, !tbaa !125
  %62 = load ptr, ptr %.05471, align 8, !tbaa !21
  %63 = tail call fastcc zeroext i1 @do_inherit_constant_check(ptr noundef %0, ptr noundef %62, ptr noundef %61)
  br label %64

64:                                               ; preds = %.lr.ph73, %59
  %65 = getelementptr inbounds nuw i8, ptr %.05471, i64 32
  %.not64 = icmp eq ptr %65, %52
  br i1 %.not64, label %.loopexit, label %.lr.ph73

._crit_edge.thread:                               ; preds = %10, %._crit_edge
  %.lcssa80 = phi i32 [ %42, %._crit_edge ], [ 0, %10 ]
  %.not62 = icmp ult i32 %.lcssa80, %4
  br i1 %.not62, label %._crit_edge76, label %66

._crit_edge76:                                    ; preds = %._crit_edge.thread
  %.phi.trans.insert = getelementptr inbounds nuw i8, ptr %0, i64 440
  %.pre77 = load ptr, ptr %.phi.trans.insert, align 8, !tbaa !21
  br label %78

66:                                               ; preds = %._crit_edge.thread
  %67 = load i8, ptr %0, align 8, !tbaa !86
  %68 = icmp eq i8 %67, 1
  %69 = getelementptr inbounds nuw i8, ptr %0, i64 440
  %70 = load ptr, ptr %69, align 8, !tbaa !21
  %71 = add i32 %4, 1
  %72 = zext i32 %71 to i64
  %73 = shl nuw nsw i64 %72, 3
  br i1 %68, label %74, label %76

74:                                               ; preds = %66
  %75 = tail call ptr @realloc(ptr noundef %70, i64 noundef %73) #21
  store ptr %75, ptr %69, align 8, !tbaa !21
  br label %78

76:                                               ; preds = %66
  %77 = tail call ptr @_erealloc(ptr noundef %70, i64 noundef %73) #21
  store ptr %77, ptr %69, align 8, !tbaa !21
  br label %78

78:                                               ; preds = %._crit_edge76, %74, %76
  %79 = phi ptr [ %.pre77, %._crit_edge76 ], [ %75, %74 ], [ %77, %76 ]
  %80 = load i32, ptr %3, align 8, !tbaa !148
  %81 = add i32 %80, 1
  store i32 %81, ptr %3, align 8, !tbaa !148
  %82 = zext i32 %80 to i64
  %83 = getelementptr inbounds nuw ptr, ptr %79, i64 %82
  store ptr %1, ptr %83, align 8, !tbaa !88
  tail call fastcc void @do_interface_implementation(ptr noundef nonnull %0, ptr noundef %1)
  br label %.loopexit

.loopexit:                                        ; preds = %64, %._crit_edge.thread84, %78
  ret void
}